target datalayout = "e-m:e-p270:32:32-p271:32:32-p272:64:64-i64:64-i128:128-f80:128-n8:16:32:64-S128"
target triple = "x86_64-pc-linux-gnu"

%struct.CVodeMemRec = type { double, ptr, ptr, i32, i32, i32, double, double, ptr, i32, ptr, ptr, i32, ptr, i32, i32, double, double, ptr, i32, i32, i32, ptr, ptr, ptr, i32, i32, ptr, ptr, ptr, i32, double, i32, i32, double, ptr, ptr, i32, ptr, ptr, i32, i32, i32, double, ptr, ptr, [13 x ptr], ptr, ptr, ptr, ptr, ptr, [13 x ptr], ptr, ptr, ptr, ptr, [13 x ptr], ptr, ptr, ptr, ptr, ptr, i32, [13 x ptr], ptr, ptr, ptr, ptr, ptr, i32, double, i32, i32, i32, i32, i32, double, double, double, double, double, double, double, double, [14 x double], [6 x double], [13 x double], double, double, double, double, double, double, double, double, double, double, double, i32, ptr, i32, i64, i32, i32, i32, i32, i32, double, double, double, i64, i64, i64, i64, i64, i64, i64, i64, i64, ptr, i64, i64, ptr, i64, i64, i64, i64, i64, i64, i32, i64, i64, i64, i64, i64, i64, double, double, double, ptr, ptr, ptr, ptr, ptr, i32, i32, i64, double, double, double, i32, double, i32, i32, i32, i32, i32, i32, i32, i32, i32, i32, i32, i32, i32, i32, i32, i32, ptr, ptr, ptr, i32, [6 x [4 x double]], i32, i64, ptr, i32, ptr, ptr, double, double, double, ptr, ptr, ptr, double, double, i32, i32, i64, ptr, i32, i32, ptr, i32 }
%struct.CVadjMemRec = type { double, double, i32, i32, double, ptr, i32, ptr, i32, ptr, i32, ptr, i64, ptr, i64, i32, ptr, ptr, ptr, ptr, i32, i32, i32, i32, [13 x ptr], [13 x ptr], [13 x double], ptr, ptr, i64 }
%struct.CVadjCheckPointRec = type { ptr, ptr, double, double, i64, i32, double }
%struct.CkpntMemRec = type { double, double, [13 x ptr], i32, [13 x ptr], i32, i32, [13 x ptr], i32, [13 x ptr], i32, i64, double, i32, i32, i32, i32, double, double, double, double, double, double, [14 x double], [6 x double], [13 x double], double, ptr }

@.str = private unnamed_addr constant [7 x i8] c"CVODEA\00", align 1
@.str.2 = private unnamed_addr constant [26 x i8] c"cvode_mem = NULL illegal.\00", align 1
@.str.3 = private unnamed_addr constant [55 x i8] c"Illegal attempt to call before calling CVodeAdjMalloc.\00", align 1
@.str.15 = private unnamed_addr constant [27 x i8] c"CVodeGetAdjCheckPointsInfo\00", align 1

; Function Attrs: nounwind uwtable
define i32 @CVodeGetAdjCheckPointsInfo(ptr noundef %0, ptr noundef %1) #0 {
  %3 = alloca i32, align 4
  %4 = alloca ptr, align 8
  %5 = alloca ptr, align 8
  %6 = alloca ptr, align 8
  %7 = alloca ptr, align 8
  %8 = alloca ptr, align 8
  %9 = alloca i32, align 4
  %10 = alloca i32, align 4
  store ptr %0, ptr %4, align 8, !tbaa !3
  store ptr %1, ptr %5, align 8, !tbaa !3
  call void @llvm.lifetime.start.p0(i64 8, ptr %6) #3
  call void @llvm.lifetime.start.p0(i64 8, ptr %7) #3
  call void @llvm.lifetime.start.p0(i64 8, ptr %8) #3
  call void @llvm.lifetime.start.p0(i64 4, ptr %9) #3
  %11 = load ptr, ptr %4, align 8, !tbaa !3
  %12 = icmp eq ptr %11, null
  br i1 %12, label %13, label %14

13:                                               ; preds = %2
  call void (ptr, i32, ptr, ptr, ptr, ...) @cvProcessError(ptr noundef null, i32 noundef -21, ptr noundef @.str, ptr noundef @.str.15, ptr noundef @.str.2)
  store i32 -21, ptr %3, align 4
  store i32 1, ptr %10, align 4
  br label %93

14:                                               ; preds = %2
  %15 = load ptr, ptr %4, align 8, !tbaa !3
  store ptr %15, ptr %6, align 8, !tbaa !7
  %16 = load ptr, ptr %6, align 8, !tbaa !7
  %17 = getelementptr inbounds nuw %struct.CVodeMemRec, ptr %16, i32 0, i32 195
  %18 = load i32, ptr %17, align 8, !tbaa !9
  %19 = icmp eq i32 %18, 0
  br i1 %19, label %20, label %22

20:                                               ; preds = %14
  %21 = load ptr, ptr %6, align 8, !tbaa !7
  call void (ptr, i32, ptr, ptr, ptr, ...) @cvProcessError(ptr noundef %21, i32 noundef -101, ptr noundef @.str, ptr noundef @.str.15, ptr noundef @.str.3)
  store i32 -101, ptr %3, align 4
  store i32 1, ptr %10, align 4
  br label %93

22:                                               ; preds = %14
  %23 = load ptr, ptr %6, align 8, !tbaa !7
  %24 = getelementptr inbounds nuw %struct.CVodeMemRec, ptr %23, i32 0, i32 194
  %25 = load ptr, ptr %24, align 8, !tbaa !21
  store ptr %25, ptr %7, align 8, !tbaa !22
  %26 = load ptr, ptr %7, align 8, !tbaa !22
  %27 = getelementptr inbounds nuw %struct.CVadjMemRec, ptr %26, i32 0, i32 9
  %28 = load ptr, ptr %27, align 8, !tbaa !50
  store ptr %28, ptr %8, align 8, !tbaa !51
  store i32 0, ptr %9, align 4, !tbaa !28
  br label %29

29:                                               ; preds = %32, %22
  %30 = load ptr, ptr %8, align 8, !tbaa !51
  %31 = icmp ne ptr %30, null
  br i1 %31, label %32, label %92

32:                                               ; preds = %29
  %33 = load ptr, ptr %8, align 8, !tbaa !51
  %34 = load ptr, ptr %5, align 8, !tbaa !3
  %35 = load i32, ptr %9, align 4, !tbaa !28
  %36 = sext i32 %35 to i64
  %37 = getelementptr inbounds %struct.CVadjCheckPointRec, ptr %34, i64 %36
  %38 = getelementptr inbounds nuw %struct.CVadjCheckPointRec, ptr %37, i32 0, i32 0
  store ptr %33, ptr %38, align 8, !tbaa !52
  %39 = load ptr, ptr %8, align 8, !tbaa !51
  %40 = getelementptr inbounds nuw %struct.CkpntMemRec, ptr %39, i32 0, i32 27
  %41 = load ptr, ptr %40, align 8, !tbaa !54
  %42 = load ptr, ptr %5, align 8, !tbaa !3
  %43 = load i32, ptr %9, align 4, !tbaa !28
  %44 = sext i32 %43 to i64
  %45 = getelementptr inbounds %struct.CVadjCheckPointRec, ptr %42, i64 %44
  %46 = getelementptr inbounds nuw %struct.CVadjCheckPointRec, ptr %45, i32 0, i32 1
  store ptr %41, ptr %46, align 8, !tbaa !56
  %47 = load ptr, ptr %8, align 8, !tbaa !51
  %48 = getelementptr inbounds nuw %struct.CkpntMemRec, ptr %47, i32 0, i32 0
  %49 = load double, ptr %48, align 8, !tbaa !57
  %50 = load ptr, ptr %5, align 8, !tbaa !3
  %51 = load i32, ptr %9, align 4, !tbaa !28
  %52 = sext i32 %51 to i64
  %53 = getelementptr inbounds %struct.CVadjCheckPointRec, ptr %50, i64 %52
  %54 = getelementptr inbounds nuw %struct.CVadjCheckPointRec, ptr %53, i32 0, i32 2
  store double %49, ptr %54, align 8, !tbaa !58
  %55 = load ptr, ptr %8, align 8, !tbaa !51
  %56 = getelementptr inbounds nuw %struct.CkpntMemRec, ptr %55, i32 0, i32 1
  %57 = load double, ptr %56, align 8, !tbaa !59
  %58 = load ptr, ptr %5, align 8, !tbaa !3
  %59 = load i32, ptr %9, align 4, !tbaa !28
  %60 = sext i32 %59 to i64
  %61 = getelementptr inbounds %struct.CVadjCheckPointRec, ptr %58, i64 %60
  %62 = getelementptr inbounds nuw %struct.CVadjCheckPointRec, ptr %61, i32 0, i32 3
  store double %57, ptr %62, align 8, !tbaa !60
  %63 = load ptr, ptr %8, align 8, !tbaa !51
  %64 = getelementptr inbounds nuw %struct.CkpntMemRec, ptr %63, i32 0, i32 11
  %65 = load i64, ptr %64, align 8, !tbaa !61
  %66 = load ptr, ptr %5, align 8, !tbaa !3
  %67 = load i32, ptr %9, align 4, !tbaa !28
  %68 = sext i32 %67 to i64
  %69 = getelementptr inbounds %struct.CVadjCheckPointRec, ptr %66, i64 %68
  %70 = getelementptr inbounds nuw %struct.CVadjCheckPointRec, ptr %69, i32 0, i32 4
  store i64 %65, ptr %70, align 8, !tbaa !62
  %71 = load ptr, ptr %8, align 8, !tbaa !51
  %72 = getelementptr inbounds nuw %struct.CkpntMemRec, ptr %71, i32 0, i32 13
  %73 = load i32, ptr %72, align 8, !tbaa !63
  %74 = load ptr, ptr %5, align 8, !tbaa !3
  %75 = load i32, ptr %9, align 4, !tbaa !28
  %76 = sext i32 %75 to i64
  %77 = getelementptr inbounds %struct.CVadjCheckPointRec, ptr %74, i64 %76
  %78 = getelementptr inbounds nuw %struct.CVadjCheckPointRec, ptr %77, i32 0, i32 5
  store i32 %73, ptr %78, align 8, !tbaa !64
  %79 = load ptr, ptr %8, align 8, !tbaa !51
  %80 = getelementptr inbounds nuw %struct.CkpntMemRec, ptr %79, i32 0, i32 18
  %81 = load double, ptr %80, align 8, !tbaa !65
  %82 = load ptr, ptr %5, align 8, !tbaa !3
  %83 = load i32, ptr %9, align 4, !tbaa !28
  %84 = sext i32 %83 to i64
  %85 = getelementptr inbounds %struct.CVadjCheckPointRec, ptr %82, i64 %84
  %86 = getelementptr inbounds nuw %struct.CVadjCheckPointRec, ptr %85, i32 0, i32 6
  store double %81, ptr %86, align 8, !tbaa !66
  %87 = load ptr, ptr %8, align 8, !tbaa !51
  %88 = getelementptr inbounds nuw %struct.CkpntMemRec, ptr %87, i32 0, i32 27
  %89 = load ptr, ptr %88, align 8, !tbaa !54
  store ptr %89, ptr %8, align 8, !tbaa !51
  %90 = load i32, ptr %9, align 4, !tbaa !28
  %91 = add nsw i32 %90, 1
  store i32 %91, ptr %9, align 4, !tbaa !28
  br label %29, !llvm.loop !67

92:                                               ; preds = %29
  store i32 0, ptr %3, align 4
  store i32 1, ptr %10, align 4
  br label %93

93:                                               ; preds = %92, %20, %13
  call void @llvm.lifetime.end.p0(i64 4, ptr %9) #3
  call void @llvm.lifetime.end.p0(i64 8, ptr %8) #3
  call void @llvm.lifetime.end.p0(i64 8, ptr %7) #3
  call void @llvm.lifetime.end.p0(i64 8, ptr %6) #3
  %94 = load i32, ptr %3, align 4
  ret i32 %94
}