; Function Attrs: nounwind uwtable
define range(i32 -101, 1) i32 @CVodeGetAdjCheckPointsInfo(ptr noundef %0, ptr noundef writeonly captures(none) %1) local_unnamed_addr #0 {
  %3 = icmp eq ptr %0, null
  br i1 %3, label %4, label %5

4:                                                ; preds = %2
  tail call void (ptr, i32, ptr, ptr, ptr, ...) @cvProcessError(ptr noundef null, i32 noundef -21, ptr noundef nonnull @.str, ptr noundef nonnull @.str.15, ptr noundef nonnull @.str.2) #2
  br label %.loopexit

5:                                                ; preds = %2
  %6 = getelementptr inbounds nuw i8, ptr %0, i64 2200
  %7 = load i32, ptr %6, align 8, !tbaa !3
  %8 = icmp eq i32 %7, 0
  br i1 %8, label %9, label %10

9:                                                ; preds = %5
  tail call void (ptr, i32, ptr, ptr, ptr, ...) @cvProcessError(ptr noundef nonnull %0, i32 noundef -101, ptr noundef nonnull @.str, ptr noundef nonnull @.str.15, ptr noundef nonnull @.str.3) #2
  br label %.loopexit

10:                                               ; preds = %5
  %11 = getelementptr inbounds nuw i8, ptr %0, i64 2192
  %12 = load ptr, ptr %11, align 8, !tbaa !18
  %13 = getelementptr inbounds nuw i8, ptr %12, i64 64
  %.03033 = load ptr, ptr %13, align 8, !tbaa !32
  %.not34 = icmp eq ptr %.03033, null
  br i1 %.not34, label %.loopexit, label %.lr.ph

.lr.ph:                                           ; preds = %10, %.lr.ph
  %indvars.iv = phi i64 [ %indvars.iv.next, %.lr.ph ], [ 0, %10 ]
  %.03036 = phi ptr [ %16, %.lr.ph ], [ %.03033, %10 ]
  %14 = getelementptr inbounds nuw %struct.CVadjCheckPointRec, ptr %1, i64 %indvars.iv
  store ptr %.03036, ptr %14, align 8, !tbaa !33
  %15 = getelementptr inbounds nuw i8, ptr %.03036, i64 816
  %16 = load ptr, ptr %15, align 8, !tbaa !35
  %17 = getelementptr inbounds nuw i8, ptr %14, i64 8
  store ptr %16, ptr %17, align 8, !tbaa !37
  %18 = load double, ptr %.03036, align 8, !tbaa !38
  %19 = getelementptr inbounds nuw i8, ptr %14, i64 16
  store double %18, ptr %19, align 8, !tbaa !39
  %20 = getelementptr inbounds nuw i8, ptr %.03036, i64 8
  %21 = load double, ptr %20, align 8, !tbaa !40
  %22 = getelementptr inbounds nuw i8, ptr %14, i64 24
  store double %21, ptr %22, align 8, !tbaa !41
  %23 = getelementptr inbounds nuw i8, ptr %.03036, i64 464
  %24 = load i64, ptr %23, align 8, !tbaa !42
  %25 = getelementptr inbounds nuw i8, ptr %14, i64 32
  store i64 %24, ptr %25, align 8, !tbaa !43
  %26 = getelementptr inbounds nuw i8, ptr %.03036, i64 480
  %27 = load i32, ptr %26, align 8, !tbaa !44
  %28 = getelementptr inbounds nuw i8, ptr %14, i64 40
  store i32 %27, ptr %28, align 8, !tbaa !45
  %29 = getelementptr inbounds nuw i8, ptr %.03036, i64 504
  %30 = load double, ptr %29, align 8, !tbaa !46
  %31 = getelementptr inbounds nuw i8, ptr %14, i64 48
  store double %30, ptr %31, align 8, !tbaa !47
  %indvars.iv.next = add nuw nsw i64 %indvars.iv, 1
  %.not = icmp eq ptr %16, null
  br i1 %.not, label %.loopexit, label %.lr.ph, !llvm.loop !48

.loopexit:                                        ; preds = %.lr.ph, %10, %9, %4
  %.031 = phi i32 [ -21, %4 ], [ -101, %9 ], [ 0, %10 ], [ 0, %.lr.ph ]
  ret i32 %.031
}